CCS PCM C Compiler, Version 5.025, 13085               10-May-23 14:59

               Filename:   C:\Users\Bfor\OneDrive\Desktop\thu_vien_c\MCP4725\vidu_MCP4725.lst

               ROM used:   577 words (7%)
                           Largest free fragment is 2048
               RAM used:   7 (2%) at main() level
                           13 (4%) worst case
               Stack used: 1 locations
               Stack size: 8

*
0000:  MOVLW  02
0001:  MOVWF  0A
0002:  GOTO   220
0003:  NOP
.................... #include "16f877a.h" 
.................... //////////// Standard Header file for the PIC16F877A device //////////////// 
.................... /////////////////////////////////////////////////////////////////////////// 
.................... ////        (C) Copyright 1996, 2013 Custom Computer Services          //// 
.................... //// This source code may only be used by licensed users of the CCS C  //// 
.................... //// compiler.  This source code may only be distributed to other      //// 
.................... //// licensed users of the CCS C compiler.  No other use, reproduction //// 
.................... //// or distribution is permitted without written permission.          //// 
.................... //// Derivative programs created using this software in object code    //// 
.................... //// form are not restricted in any way.                               //// 
.................... /////////////////////////////////////////////////////////////////////////// 
.................... #device PIC16F877A 
0004:  DATA E2,3C
0005:  DATA F4,32
0006:  DATA BD,12
0007:  DATA 75,10
0008:  DATA 8A,06
0009:  DATA 00,00
*
00F6:  MOVF   26,W
00F7:  CLRF   78
00F8:  SUBWF  25,W
00F9:  BTFSC  03.0
00FA:  GOTO   0FE
00FB:  MOVF   25,W
00FC:  MOVWF  77
00FD:  GOTO   10A
00FE:  CLRF   77
00FF:  MOVLW  08
0100:  MOVWF  27
0101:  RLF    25,F
0102:  RLF    77,F
0103:  MOVF   26,W
0104:  SUBWF  77,W
0105:  BTFSC  03.0
0106:  MOVWF  77
0107:  RLF    78,F
0108:  DECFSZ 27,F
0109:  GOTO   101
010A:  RETURN
*
014A:  MOVF   0B,W
014B:  MOVWF  24
014C:  BCF    0B.7
014D:  BSF    03.5
014E:  BSF    03.6
014F:  BSF    0C.7
0150:  BSF    0C.0
0151:  NOP
0152:  NOP
0153:  BCF    03.5
0154:  BCF    03.6
0155:  BTFSC  24.7
0156:  BSF    0B.7
0157:  BTFSC  03.0
0158:  GOTO   182
0159:  BSF    03.6
015A:  MOVF   0C,W
015B:  ANDLW  7F
015C:  BCF    03.6
015D:  MOVWF  24
015E:  BSF    03.6
015F:  MOVF   0D,W
0160:  BCF    03.6
0161:  MOVWF  25
0162:  BSF    03.6
0163:  MOVF   0F,W
0164:  BCF    03.6
0165:  MOVWF  26
0166:  MOVF   24,W
0167:  BTFSS  0C.4
0168:  GOTO   167
0169:  MOVWF  19
016A:  MOVF   25,W
016B:  BSF    03.6
016C:  MOVWF  0D
016D:  BCF    03.6
016E:  MOVF   26,W
016F:  BSF    03.6
0170:  MOVWF  0F
0171:  BCF    03.6
0172:  MOVF   0B,W
0173:  MOVWF  27
0174:  BCF    0B.7
0175:  BSF    03.5
0176:  BSF    03.6
0177:  BSF    0C.7
0178:  BSF    0C.0
0179:  NOP
017A:  NOP
017B:  BCF    03.5
017C:  BCF    03.6
017D:  BTFSC  27.7
017E:  BSF    0B.7
017F:  DECFSZ 23,F
0180:  GOTO   182
0181:  GOTO   1A2
0182:  BSF    03.6
0183:  RLF    0C,W
0184:  RLF    0E,W
0185:  ANDLW  7F
0186:  BCF    03.6
0187:  MOVWF  24
0188:  BSF    03.6
0189:  MOVF   0D,W
018A:  BCF    03.6
018B:  MOVWF  25
018C:  BSF    03.6
018D:  MOVF   0F,W
018E:  BCF    03.6
018F:  MOVWF  26
0190:  MOVF   24,W
0191:  BTFSS  0C.4
0192:  GOTO   191
0193:  MOVWF  19
0194:  MOVF   25,W
0195:  BSF    03.6
0196:  MOVWF  0D
0197:  BCF    03.6
0198:  MOVF   26,W
0199:  BSF    03.6
019A:  MOVWF  0F
019B:  INCF   0D,F
019C:  BTFSC  03.2
019D:  INCF   0F,F
019E:  BCF    03.0
019F:  BCF    03.6
01A0:  DECFSZ 23,F
01A1:  GOTO   14A
*
01A6:  MOVF   23,W
01A7:  MOVWF  25
01A8:  MOVLW  64
01A9:  MOVWF  26
01AA:  CALL   0F6
01AB:  MOVF   77,W
01AC:  MOVWF  23
01AD:  MOVF   78,W
01AE:  MOVLW  30
01AF:  BTFSS  03.2
01B0:  GOTO   1B8
01B1:  BTFSS  24.1
01B2:  GOTO   1C0
01B3:  BTFSC  24.3
01B4:  GOTO   1C0
01B5:  BTFSC  24.4
01B6:  MOVLW  20
01B7:  GOTO   1BB
01B8:  BCF    24.3
01B9:  BCF    24.4
01BA:  BSF    24.0
01BB:  ADDWF  78,F
01BC:  MOVF   78,W
01BD:  BTFSS  0C.4
01BE:  GOTO   1BD
01BF:  MOVWF  19
01C0:  MOVF   23,W
01C1:  MOVWF  25
01C2:  MOVLW  0A
01C3:  MOVWF  26
01C4:  CALL   0F6
01C5:  MOVF   77,W
01C6:  MOVWF  23
01C7:  MOVF   78,W
01C8:  MOVLW  30
01C9:  BTFSS  03.2
01CA:  GOTO   1D1
01CB:  BTFSC  24.3
01CC:  GOTO   1D6
01CD:  BTFSS  24.0
01CE:  GOTO   1D6
01CF:  BTFSC  24.4
01D0:  MOVLW  20
01D1:  ADDWF  78,F
01D2:  MOVF   78,W
01D3:  BTFSS  0C.4
01D4:  GOTO   1D3
01D5:  MOVWF  19
01D6:  MOVLW  30
01D7:  ADDWF  23,F
01D8:  MOVF   23,W
01D9:  BTFSS  0C.4
01DA:  GOTO   1D9
01DB:  MOVWF  19
....................  
.................... #list 
....................  
.................... #use delay(clock=16M) 
*
0209:  MOVLW  22
020A:  MOVWF  04
020B:  BCF    03.7
020C:  MOVF   00,W
020D:  BTFSC  03.2
020E:  GOTO   21D
020F:  MOVLW  05
0210:  MOVWF  78
0211:  CLRF   77
0212:  DECFSZ 77,F
0213:  GOTO   212
0214:  DECFSZ 78,F
0215:  GOTO   211
0216:  MOVLW  2E
0217:  MOVWF  77
0218:  DECFSZ 77,F
0219:  GOTO   218
021A:  GOTO   21B
021B:  DECFSZ 00,F
021C:  GOTO   20F
021D:  BCF    0A.3
021E:  BCF    0A.4
021F:  GOTO   23D (RETURN)
.................... #use i2c(master,sda=PIN_C4, scl=PIN_C3, FAST=100000)  
*
000A:  MOVLW  08
000B:  MOVWF  78
000C:  MOVLW  02
000D:  MOVWF  77
000E:  DECFSZ 77,F
000F:  GOTO   00E
0010:  BCF    07.3
0011:  BCF    20.3
0012:  MOVF   20,W
0013:  BSF    03.5
0014:  MOVWF  07
0015:  GOTO   016
0016:  GOTO   017
0017:  BCF    03.5
0018:  RLF    23,F
0019:  BCF    07.4
001A:  BTFSS  03.0
001B:  GOTO   022
001C:  BSF    20.4
001D:  MOVF   20,W
001E:  BSF    03.5
001F:  MOVWF  07
0020:  GOTO   026
0021:  BCF    03.5
0022:  BCF    20.4
0023:  MOVF   20,W
0024:  BSF    03.5
0025:  MOVWF  07
0026:  NOP
0027:  BCF    03.5
0028:  BSF    20.3
0029:  MOVF   20,W
002A:  BSF    03.5
002B:  MOVWF  07
002C:  BCF    03.5
002D:  BTFSS  07.3
002E:  GOTO   02D
002F:  DECFSZ 78,F
0030:  GOTO   00C
0031:  MOVLW  02
0032:  MOVWF  77
0033:  DECFSZ 77,F
0034:  GOTO   033
0035:  BCF    07.3
0036:  BCF    20.3
0037:  MOVF   20,W
0038:  BSF    03.5
0039:  MOVWF  07
003A:  NOP
003B:  BCF    03.5
003C:  BSF    20.4
003D:  MOVF   20,W
003E:  BSF    03.5
003F:  MOVWF  07
0040:  GOTO   041
0041:  GOTO   042
0042:  GOTO   043
0043:  GOTO   044
0044:  BCF    03.5
0045:  BSF    20.3
0046:  MOVF   20,W
0047:  BSF    03.5
0048:  MOVWF  07
0049:  BCF    03.5
004A:  BTFSS  07.3
004B:  GOTO   04A
004C:  CLRF   78
004D:  GOTO   04E
004E:  GOTO   04F
004F:  BTFSC  07.4
0050:  BSF    78.0
0051:  BCF    07.3
0052:  BCF    20.3
0053:  MOVF   20,W
0054:  BSF    03.5
0055:  MOVWF  07
0056:  BCF    03.5
0057:  BCF    07.4
0058:  BCF    20.4
0059:  MOVF   20,W
005A:  BSF    03.5
005B:  MOVWF  07
005C:  BCF    03.5
005D:  RETURN
*
00A8:  MOVLW  08
00A9:  MOVWF  24
00AA:  MOVF   77,W
00AB:  MOVWF  25
00AC:  BSF    20.4
00AD:  MOVF   20,W
00AE:  BSF    03.5
00AF:  MOVWF  07
00B0:  GOTO   0B1
00B1:  GOTO   0B2
00B2:  BCF    03.5
00B3:  BSF    20.3
00B4:  MOVF   20,W
00B5:  BSF    03.5
00B6:  MOVWF  07
00B7:  BCF    03.5
00B8:  BTFSS  07.3
00B9:  GOTO   0B8
00BA:  BTFSC  07.4
00BB:  BSF    03.0
00BC:  BTFSS  07.4
00BD:  BCF    03.0
00BE:  RLF    78,F
00BF:  MOVLW  02
00C0:  MOVWF  77
00C1:  DECFSZ 77,F
00C2:  GOTO   0C1
00C3:  BCF    20.3
00C4:  MOVF   20,W
00C5:  BSF    03.5
00C6:  MOVWF  07
00C7:  BCF    03.5
00C8:  BCF    07.3
00C9:  DECFSZ 24,F
00CA:  GOTO   0AC
00CB:  BSF    20.4
00CC:  MOVF   20,W
00CD:  BSF    03.5
00CE:  MOVWF  07
00CF:  GOTO   0D0
00D0:  GOTO   0D1
00D1:  BCF    03.5
00D2:  BCF    07.4
00D3:  MOVF   25,W
00D4:  BTFSC  03.2
00D5:  GOTO   0DB
00D6:  BCF    20.4
00D7:  MOVF   20,W
00D8:  BSF    03.5
00D9:  MOVWF  07
00DA:  BCF    03.5
00DB:  NOP
00DC:  BSF    20.3
00DD:  MOVF   20,W
00DE:  BSF    03.5
00DF:  MOVWF  07
00E0:  BCF    03.5
00E1:  BTFSS  07.3
00E2:  GOTO   0E1
00E3:  MOVLW  02
00E4:  MOVWF  77
00E5:  DECFSZ 77,F
00E6:  GOTO   0E5
00E7:  BCF    07.3
00E8:  BCF    20.3
00E9:  MOVF   20,W
00EA:  BSF    03.5
00EB:  MOVWF  07
00EC:  GOTO   0ED
00ED:  GOTO   0EE
00EE:  BCF    03.5
00EF:  BCF    07.4
00F0:  BCF    20.4
00F1:  MOVF   20,W
00F2:  BSF    03.5
00F3:  MOVWF  07
00F4:  BCF    03.5
00F5:  RETURN
.................... #use rs232(baud=9600,xmit=pin_C6,rcv=pin_C7)  
.................... void R_mcp4725(); 
.................... void W_mcp4725(); 
.................... void main(){ 
*
0220:  MOVF   03,W
0221:  ANDLW  1F
0222:  MOVWF  03
0223:  MOVLW  FF
0224:  MOVWF  20
0225:  MOVLW  19
0226:  BSF    03.5
0227:  MOVWF  19
0228:  MOVLW  A2
0229:  MOVWF  18
022A:  MOVLW  90
022B:  BCF    03.5
022C:  MOVWF  18
022D:  BSF    03.5
022E:  BSF    1F.0
022F:  BSF    1F.1
0230:  BSF    1F.2
0231:  BCF    1F.3
0232:  MOVLW  07
0233:  MOVWF  1C
0234:  BCF    03.7
....................    W_mcp4725(); 
0235:  BCF    03.5
0236:  GOTO   05E
....................    while(1){ 
....................       R_mcp4725(); 
0237:  GOTO   10B
....................       delay_ms(1000); 
0238:  MOVLW  04
0239:  MOVWF  21
023A:  MOVLW  FA
023B:  MOVWF  22
023C:  GOTO   209
023D:  DECFSZ 21,F
023E:  GOTO   23A
023F:  GOTO   237
....................    } 
.................... } 
.................... void R_mcp4725(){ 
0240:  SLEEP
....................    i2c_start(); 
*
010B:  BSF    20.4
010C:  MOVF   20,W
010D:  BSF    03.5
010E:  MOVWF  07
010F:  MOVLW  02
0110:  MOVWF  77
0111:  DECFSZ 77,F
0112:  GOTO   111
0113:  BCF    03.5
0114:  BSF    20.3
0115:  MOVF   20,W
0116:  BSF    03.5
0117:  MOVWF  07
0118:  GOTO   119
0119:  GOTO   11A
011A:  BCF    03.5
011B:  BCF    07.4
011C:  BCF    20.4
011D:  MOVF   20,W
011E:  BSF    03.5
011F:  MOVWF  07
0120:  MOVLW  02
0121:  MOVWF  77
0122:  DECFSZ 77,F
0123:  GOTO   122
0124:  BCF    03.5
0125:  BCF    07.3
0126:  BCF    20.3
0127:  MOVF   20,W
0128:  BSF    03.5
0129:  MOVWF  07
....................    i2c_write(193); 
012A:  MOVLW  C1
012B:  BCF    03.5
012C:  MOVWF  23
012D:  CALL   00A
....................    unsigned int data1 = i2c_read(1); 
012E:  MOVLW  01
012F:  MOVWF  77
0130:  CALL   0A8
0131:  MOVF   78,W
0132:  MOVWF  21
....................    if(data1 >127) 
0133:  MOVF   21,W
0134:  SUBLW  7F
0135:  BTFSC  03.0
0136:  GOTO   1EA
....................       for(int i=0;i<4;i++){ 
0137:  CLRF   22
0138:  MOVF   22,W
0139:  SUBLW  03
013A:  BTFSS  03.0
013B:  GOTO   1EA
....................          data1 = i2c_read(1); 
013C:  MOVLW  01
013D:  MOVWF  77
013E:  CALL   0A8
013F:  MOVF   78,W
0140:  MOVWF  21
....................          printf("byte=%u \n\r",data1); 
0141:  MOVLW  04
0142:  BSF    03.6
0143:  MOVWF  0D
0144:  MOVLW  00
0145:  MOVWF  0F
0146:  BCF    03.0
0147:  MOVLW  05
0148:  BCF    03.6
0149:  MOVWF  23
*
01A2:  MOVF   21,W
01A3:  MOVWF  23
01A4:  MOVLW  1B
01A5:  MOVWF  24
*
01DC:  MOVLW  20
01DD:  BTFSS  0C.4
01DE:  GOTO   1DD
01DF:  MOVWF  19
01E0:  MOVLW  0A
01E1:  BTFSS  0C.4
01E2:  GOTO   1E1
01E3:  MOVWF  19
01E4:  MOVLW  0D
01E5:  BTFSS  0C.4
01E6:  GOTO   1E5
01E7:  MOVWF  19
01E8:  INCF   22,F
01E9:  GOTO   138
....................       } 
....................    i2c_stop(); 
01EA:  BCF    20.4
01EB:  MOVF   20,W
01EC:  BSF    03.5
01ED:  MOVWF  07
01EE:  NOP
01EF:  BCF    03.5
01F0:  BSF    20.3
01F1:  MOVF   20,W
01F2:  BSF    03.5
01F3:  MOVWF  07
01F4:  BCF    03.5
01F5:  BTFSS  07.3
01F6:  GOTO   1F5
01F7:  MOVLW  02
01F8:  MOVWF  77
01F9:  DECFSZ 77,F
01FA:  GOTO   1F9
01FB:  GOTO   1FC
01FC:  NOP
01FD:  BSF    20.4
01FE:  MOVF   20,W
01FF:  BSF    03.5
0200:  MOVWF  07
0201:  MOVLW  02
0202:  MOVWF  77
0203:  DECFSZ 77,F
0204:  GOTO   203
0205:  BCF    03.5
0206:  BCF    0A.3
0207:  BCF    0A.4
0208:  GOTO   238 (RETURN)
.................... } 
....................  
.................... void W_mcp4725(){ 
....................    i2c_start(); 
*
005E:  BSF    20.4
005F:  MOVF   20,W
0060:  BSF    03.5
0061:  MOVWF  07
0062:  MOVLW  02
0063:  MOVWF  77
0064:  DECFSZ 77,F
0065:  GOTO   064
0066:  BCF    03.5
0067:  BSF    20.3
0068:  MOVF   20,W
0069:  BSF    03.5
006A:  MOVWF  07
006B:  GOTO   06C
006C:  GOTO   06D
006D:  BCF    03.5
006E:  BCF    07.4
006F:  BCF    20.4
0070:  MOVF   20,W
0071:  BSF    03.5
0072:  MOVWF  07
0073:  MOVLW  02
0074:  MOVWF  77
0075:  DECFSZ 77,F
0076:  GOTO   075
0077:  BCF    03.5
0078:  BCF    07.3
0079:  BCF    20.3
007A:  MOVF   20,W
007B:  BSF    03.5
007C:  MOVWF  07
....................    i2c_write(192); 
007D:  MOVLW  C0
007E:  BCF    03.5
007F:  MOVWF  23
0080:  CALL   00A
....................    i2c_write(96); 
0081:  MOVLW  60
0082:  MOVWF  23
0083:  CALL   00A
....................    i2c_write(125); 
0084:  MOVLW  7D
0085:  MOVWF  23
0086:  CALL   00A
....................    i2c_write(0); 
0087:  CLRF   23
0088:  CALL   00A
....................    i2c_stop(); 
0089:  BCF    20.4
008A:  MOVF   20,W
008B:  BSF    03.5
008C:  MOVWF  07
008D:  NOP
008E:  BCF    03.5
008F:  BSF    20.3
0090:  MOVF   20,W
0091:  BSF    03.5
0092:  MOVWF  07
0093:  BCF    03.5
0094:  BTFSS  07.3
0095:  GOTO   094
0096:  MOVLW  02
0097:  MOVWF  77
0098:  DECFSZ 77,F
0099:  GOTO   098
009A:  GOTO   09B
009B:  NOP
009C:  BSF    20.4
009D:  MOVF   20,W
009E:  BSF    03.5
009F:  MOVWF  07
00A0:  MOVLW  02
00A1:  MOVWF  77
00A2:  DECFSZ 77,F
00A3:  GOTO   0A2
00A4:  BCF    03.5
00A5:  BCF    0A.3
00A6:  BCF    0A.4
00A7:  GOTO   237 (RETURN)
.................... } 

Configuration Fuses:
   Word  1: 3F73   RC NOWDT PUT BROWNOUT NOLVP NOCPD NOWRT NODEBUG NOPROTECT
